target datalayout = "e-m:e-p270:32:32-p271:32:32-p272:64:64-i64:64-i128:128-f80:128-n8:16:32:64-S128"
target triple = "x86_64-pc-linux-gnu"

%union.pthread_mutex_t = type { %struct.__pthread_mutex_s }
%struct.__pthread_mutex_s = type { i32, i32, i32, i32, i32, i16, i16, %struct.__pthread_internal_list }
%struct.__pthread_internal_list = type { ptr, ptr }
%union.pthread_cond_t = type { %struct.__pthread_cond_s }
%struct.__pthread_cond_s = type { %union.__atomic_wide_counter, %union.__atomic_wide_counter, [2 x i32], [2 x i32], i32, i32, [2 x i32] }
%union.__atomic_wide_counter = type { i64 }
%struct.log_options_t = type { i32, i32, i32, i8, i8, i8, i32 }
%struct.slurmd_config = type { ptr, ptr, i32, [4096 x i8], ptr, ptr, ptr, ptr, i16, i16, i16, i16, ptr, i16, i64, i16, i16, i16, i16, i16, i16, i16, i16, i16, i16, i16, i64, i64, i32, i32, i16, ptr, ptr, ptr, i32, ptr, ptr, ptr, ptr, ptr, ptr, ptr, ptr, ptr, ptr, i32, ptr, ptr, i16, i32, i32, %struct.log_options_t, i32, i16, i64, i8, i8, i8, i8, i8, %union.pthread_mutex_t, i16, ptr, %union.pthread_cond_t, ptr, %union.pthread_cond_t, i8, i8, ptr, ptr }

@conf = dso_local global ptr null, align 8
@.str.43 = private unnamed_addr constant [29 x i8] c"%s: pthread_mutex_lock(): %m\00", align 1
@.str.44 = private unnamed_addr constant [31 x i8] c"%s: pthread_mutex_unlock(): %m\00", align 1
@__func__._set_topo_info = private unnamed_addr constant [15 x i8] c"_set_topo_info\00", align 1

; Function Attrs: nounwind uwtable
define internal i32 @_set_topo_info() #0 {
  %1 = alloca i32, align 4
  %2 = alloca ptr, align 8
  %3 = alloca ptr, align 8
  %4 = alloca i32, align 4
  %5 = alloca i32, align 4
  call void @llvm.lifetime.start.p0(i64 4, ptr %1) #11
  call void @llvm.lifetime.start.p0(i64 8, ptr %2) #11
  store ptr null, ptr %2, align 8
  call void @llvm.lifetime.start.p0(i64 8, ptr %3) #11
  store ptr null, ptr %3, align 8
  br label %6

6:                                                ; preds = %0
  call void @llvm.lifetime.start.p0(i64 4, ptr %4) #11
  %7 = load ptr, ptr @conf, align 8
  %8 = getelementptr inbounds nuw %struct.slurmd_config, ptr %7, i32 0, i32 60
  %9 = call i32 @pthread_mutex_lock(ptr noundef %8) #11
  store i32 %9, ptr %4, align 4
  %10 = load i32, ptr %4, align 4
  %11 = icmp ne i32 %10, 0
  br i1 %11, label %12, label %15

12:                                               ; preds = %6
  %13 = load i32, ptr %4, align 4
  %14 = call ptr @__errno_location() #15
  store i32 %13, ptr %14, align 4
  call void (ptr, ...) @fatal_abort(ptr noundef @.str.43, ptr noundef @__func__._set_topo_info) #12
  unreachable

15:                                               ; preds = %6
  call void @llvm.lifetime.end.p0(i64 4, ptr %4) #11
  br label %16

16:                                               ; preds = %15
  br label %17

17:                                               ; preds = %16
  %18 = load ptr, ptr @conf, align 8
  %19 = getelementptr inbounds nuw %struct.slurmd_config, ptr %18, i32 0, i32 35
  %20 = load ptr, ptr %19, align 8
  %21 = call i32 @topology_g_get_node_addr(ptr noundef %20, ptr noundef %2, ptr noundef %3)
  store i32 %21, ptr %1, align 4
  %22 = load i32, ptr %1, align 4
  %23 = icmp eq i32 %22, 0
  br i1 %23, label %24, label %35

24:                                               ; preds = %17
  %25 = load ptr, ptr @conf, align 8
  %26 = getelementptr inbounds nuw %struct.slurmd_config, ptr %25, i32 0, i32 36
  call void @slurm_xfree(ptr noundef %26)
  %27 = load ptr, ptr @conf, align 8
  %28 = getelementptr inbounds nuw %struct.slurmd_config, ptr %27, i32 0, i32 37
  call void @slurm_xfree(ptr noundef %28)
  %29 = load ptr, ptr %2, align 8
  %30 = load ptr, ptr @conf, align 8
  %31 = getelementptr inbounds nuw %struct.slurmd_config, ptr %30, i32 0, i32 36
  store ptr %29, ptr %31, align 8
  %32 = load ptr, ptr %3, align 8
  %33 = load ptr, ptr @conf, align 8
  %34 = getelementptr inbounds nuw %struct.slurmd_config, ptr %33, i32 0, i32 37
  store ptr %32, ptr %34, align 8
  br label %35

35:                                               ; preds = %24, %17
  br label %36

36:                                               ; preds = %35
  call void @llvm.lifetime.start.p0(i64 4, ptr %5) #11
  %37 = load ptr, ptr @conf, align 8
  %38 = getelementptr inbounds nuw %struct.slurmd_config, ptr %37, i32 0, i32 60
  %39 = call i32 @pthread_mutex_unlock(ptr noundef %38) #11
  store i32 %39, ptr %5, align 4
  %40 = load i32, ptr %5, align 4
  %41 = icmp ne i32 %40, 0
  br i1 %41, label %42, label %45

42:                                               ; preds = %36
  %43 = load i32, ptr %5, align 4
  %44 = call ptr @__errno_location() #15
  store i32 %43, ptr %44, align 4
  call void (ptr, ...) @fatal_abort(ptr noundef @.str.44, ptr noundef @__func__._set_topo_info) #12
  unreachable

45:                                               ; preds = %36
  call void @llvm.lifetime.end.p0(i64 4, ptr %5) #11
  br label %46

46:                                               ; preds = %45
  br label %47

47:                                               ; preds = %46
  %48 = load i32, ptr %1, align 4
  call void @llvm.lifetime.end.p0(i64 8, ptr %3) #11
  call void @llvm.lifetime.end.p0(i64 8, ptr %2) #11
  call void @llvm.lifetime.end.p0(i64 4, ptr %1) #11
  ret i32 %48
}