; Function Attrs: nounwind uwtable
define internal fastcc void @_set_topo_info() unnamed_addr #0 {
  %1 = alloca ptr, align 8
  %2 = alloca ptr, align 8
  call void @llvm.lifetime.start.p0(i64 8, ptr nonnull %1) #18
  store ptr null, ptr %1, align 8
  call void @llvm.lifetime.start.p0(i64 8, ptr nonnull %2) #18
  store ptr null, ptr %2, align 8
  %3 = load ptr, ptr @conf, align 8
  %4 = getelementptr inbounds nuw i8, ptr %3, i64 4432
  %5 = tail call i32 @pthread_mutex_lock(ptr noundef nonnull %4) #18
  %.not = icmp eq i32 %5, 0
  br i1 %.not, label %8, label %6

6:                                                ; preds = %0
  %7 = tail call ptr @__errno_location() #21
  store i32 %5, ptr %7, align 4
  tail call void (ptr, ...) @fatal_abort(ptr noundef nonnull @.str.43, ptr noundef nonnull @__func__._set_topo_info) #19
  unreachable

8:                                                ; preds = %0
  %9 = load ptr, ptr @conf, align 8
  %10 = getelementptr inbounds nuw i8, ptr %9, i64 4272
  %11 = load ptr, ptr %10, align 8
  %12 = call i32 @topology_g_get_node_addr(ptr noundef %11, ptr noundef nonnull %1, ptr noundef nonnull %2) #18
  %13 = icmp eq i32 %12, 0
  %.pre = load ptr, ptr @conf, align 8
  br i1 %13, label %14, label %23

14:                                               ; preds = %8
  %15 = getelementptr inbounds nuw i8, ptr %.pre, i64 4280
  call void @slurm_xfree(ptr noundef nonnull %15) #18
  %16 = load ptr, ptr @conf, align 8
  %17 = getelementptr inbounds nuw i8, ptr %16, i64 4288
  call void @slurm_xfree(ptr noundef nonnull %17) #18
  %18 = load ptr, ptr %1, align 8
  %19 = load ptr, ptr @conf, align 8
  %20 = getelementptr inbounds nuw i8, ptr %19, i64 4280
  store ptr %18, ptr %20, align 8
  %21 = load ptr, ptr %2, align 8
  %22 = getelementptr inbounds nuw i8, ptr %19, i64 4288
  store ptr %21, ptr %22, align 8
  br label %23

23:                                               ; preds = %8, %14
  %24 = phi ptr [ %.pre, %8 ], [ %19, %14 ]
  %25 = getelementptr inbounds nuw i8, ptr %24, i64 4432
  %26 = call i32 @pthread_mutex_unlock(ptr noundef nonnull %25) #18
  %.not7 = icmp eq i32 %26, 0
  br i1 %.not7, label %29, label %27

27:                                               ; preds = %23
  %28 = tail call ptr @__errno_location() #21
  store i32 %26, ptr %28, align 4
  call void (ptr, ...) @fatal_abort(ptr noundef nonnull @.str.44, ptr noundef nonnull @__func__._set_topo_info) #19
  unreachable

29:                                               ; preds = %23
  call void @llvm.lifetime.end.p0(i64 8, ptr nonnull %2) #18
  call void @llvm.lifetime.end.p0(i64 8, ptr nonnull %1) #18
  ret void
}